#include <math.h>
#include <stdio.h>
#include <stdlib.h>
#include <string.h>

int main()
{
	int n,i,j,k;
	scanf("%d",&n);
	char s[n][81],c;
	c=getchar();
	int ss[n];
	for(i=0;i<n;i++) ss[i]=1; 
	for(i=0;i<n;i++)
	{
		gets(s[i]);
		int S=strlen(s[i]);
		if(s[i][0]=='_'||(s[i][0]<='Z'&&s[i][0]>='A')||(s[i][0]<='z'&&s[i][0]>='a'))
		{
			for(j=1;j<S;j++)
			{
				if(s[i][j]=='_'||(s[i][j]<='Z'&&s[i][j]>='A')||(s[i][j]<='z'&&s[i][j]>='a')||(s[i][j]<='9'&&s[i][j]>='0')) ss[i]=ss[i]*1;
				else ss[i]=0;
			}
		}
		else ss[i]=0;
		printf("%d\n",ss[i]);
	}
}