; ModuleID = '58/1219.c'
source_filename = "58/1219.c"
target datalayout = "e-m:e-p270:32:32-p271:32:32-p272:64:64-i64:64-f80:128-n8:16:32:64-S128"
target triple = "x86_64-pc-linux-gnu"

@.str = private unnamed_addr constant [3 x i8] c"%d\00", align 1
@.str.1 = private unnamed_addr constant [4 x i8] c"%d\0A\00", align 1

; Function Attrs: noinline nounwind uwtable
define dso_local i32 @main() #0 {
  %1 = alloca i32, align 4
  %2 = alloca i32, align 4
  %3 = alloca i32, align 4
  %4 = alloca i32, align 4
  %5 = alloca i32, align 4
  %6 = alloca i8*, align 8
  %7 = alloca i64, align 8
  %8 = alloca i8, align 1
  %9 = alloca i64, align 8
  %10 = alloca i32, align 4
  store i32 0, i32* %1, align 4
  %11 = call i32 (i8*, ...) @__isoc99_scanf(i8* getelementptr inbounds ([3 x i8], [3 x i8]* @.str, i64 0, i64 0), i32* %2)
  %12 = load i32, i32* %2, align 4
  %13 = zext i32 %12 to i64
  %14 = call i8* @llvm.stacksave()
  store i8* %14, i8** %6, align 8
  %15 = alloca [81 x i8], i64 %13, align 16
  store i64 %13, i64* %7, align 8
  %16 = call i32 @getchar()
  %17 = trunc i32 %16 to i8
  store i8 %17, i8* %8, align 1
  %18 = load i32, i32* %2, align 4
  %19 = zext i32 %18 to i64
  %20 = alloca i32, i64 %19, align 16
  store i64 %19, i64* %9, align 8
  store i32 0, i32* %3, align 4
  br label %21

21:                                               ; preds = %29, %0
  %22 = load i32, i32* %3, align 4
  %23 = load i32, i32* %2, align 4
  %24 = icmp slt i32 %22, %23
  br i1 %24, label %25, label %32

25:                                               ; preds = %21
  %26 = load i32, i32* %3, align 4
  %27 = sext i32 %26 to i64
  %28 = getelementptr inbounds i32, i32* %20, i64 %27
  store i32 1, i32* %28, align 4
  br label %29

29:                                               ; preds = %25
  %30 = load i32, i32* %3, align 4
  %31 = add nsw i32 %30, 1
  store i32 %31, i32* %3, align 4
  br label %21

32:                                               ; preds = %21
  store i32 0, i32* %3, align 4
  br label %33

33:                                               ; preds = %191, %32
  %34 = load i32, i32* %3, align 4
  %35 = load i32, i32* %2, align 4
  %36 = icmp slt i32 %34, %35
  br i1 %36, label %37, label %194

37:                                               ; preds = %33
  %38 = load i32, i32* %3, align 4
  %39 = sext i32 %38 to i64
  %40 = getelementptr inbounds [81 x i8], [81 x i8]* %15, i64 %39
  %41 = getelementptr inbounds [81 x i8], [81 x i8]* %40, i64 0, i64 0
  %42 = call i32 (i8*, ...) bitcast (i32 (...)* @gets to i32 (i8*, ...)*)(i8* %41)
  %43 = load i32, i32* %3, align 4
  %44 = sext i32 %43 to i64
  %45 = getelementptr inbounds [81 x i8], [81 x i8]* %15, i64 %44
  %46 = getelementptr inbounds [81 x i8], [81 x i8]* %45, i64 0, i64 0
  %47 = call i64 @strlen(i8* %46) #4
  %48 = trunc i64 %47 to i32
  store i32 %48, i32* %10, align 4
  %49 = load i32, i32* %3, align 4
  %50 = sext i32 %49 to i64
  %51 = getelementptr inbounds [81 x i8], [81 x i8]* %15, i64 %50
  %52 = getelementptr inbounds [81 x i8], [81 x i8]* %51, i64 0, i64 0
  %53 = load i8, i8* %52, align 1
  %54 = sext i8 %53 to i32
  %55 = icmp eq i32 %54, 95
  br i1 %55, label %88, label %56

56:                                               ; preds = %37
  %57 = load i32, i32* %3, align 4
  %58 = sext i32 %57 to i64
  %59 = getelementptr inbounds [81 x i8], [81 x i8]* %15, i64 %58
  %60 = getelementptr inbounds [81 x i8], [81 x i8]* %59, i64 0, i64 0
  %61 = load i8, i8* %60, align 1
  %62 = sext i8 %61 to i32
  %63 = icmp sle i32 %62, 90
  br i1 %63, label %64, label %72

64:                                               ; preds = %56
  %65 = load i32, i32* %3, align 4
  %66 = sext i32 %65 to i64
  %67 = getelementptr inbounds [81 x i8], [81 x i8]* %15, i64 %66
  %68 = getelementptr inbounds [81 x i8], [81 x i8]* %67, i64 0, i64 0
  %69 = load i8, i8* %68, align 1
  %70 = sext i8 %69 to i32
  %71 = icmp sge i32 %70, 65
  br i1 %71, label %88, label %72

72:                                               ; preds = %64, %56
  %73 = load i32, i32* %3, align 4
  %74 = sext i32 %73 to i64
  %75 = getelementptr inbounds [81 x i8], [81 x i8]* %15, i64 %74
  %76 = getelementptr inbounds [81 x i8], [81 x i8]* %75, i64 0, i64 0
  %77 = load i8, i8* %76, align 1
  %78 = sext i8 %77 to i32
  %79 = icmp sle i32 %78, 122
  br i1 %79, label %80, label %181

80:                                               ; preds = %72
  %81 = load i32, i32* %3, align 4
  %82 = sext i32 %81 to i64
  %83 = getelementptr inbounds [81 x i8], [81 x i8]* %15, i64 %82
  %84 = getelementptr inbounds [81 x i8], [81 x i8]* %83, i64 0, i64 0
  %85 = load i8, i8* %84, align 1
  %86 = sext i8 %85 to i32
  %87 = icmp sge i32 %86, 97
  br i1 %87, label %88, label %181

88:                                               ; preds = %80, %64, %37
  store i32 1, i32* %4, align 4
  br label %89

89:                                               ; preds = %177, %88
  %90 = load i32, i32* %4, align 4
  %91 = load i32, i32* %10, align 4
  %92 = icmp slt i32 %90, %91
  br i1 %92, label %93, label %180

93:                                               ; preds = %89
  %94 = load i32, i32* %3, align 4
  %95 = sext i32 %94 to i64
  %96 = getelementptr inbounds [81 x i8], [81 x i8]* %15, i64 %95
  %97 = load i32, i32* %4, align 4
  %98 = sext i32 %97 to i64
  %99 = getelementptr inbounds [81 x i8], [81 x i8]* %96, i64 0, i64 %98
  %100 = load i8, i8* %99, align 1
  %101 = sext i8 %100 to i32
  %102 = icmp eq i32 %101, 95
  br i1 %102, label %163, label %103

103:                                              ; preds = %93
  %104 = load i32, i32* %3, align 4
  %105 = sext i32 %104 to i64
  %106 = getelementptr inbounds [81 x i8], [81 x i8]* %15, i64 %105
  %107 = load i32, i32* %4, align 4
  %108 = sext i32 %107 to i64
  %109 = getelementptr inbounds [81 x i8], [81 x i8]* %106, i64 0, i64 %108
  %110 = load i8, i8* %109, align 1
  %111 = sext i8 %110 to i32
  %112 = icmp sle i32 %111, 90
  br i1 %112, label %113, label %123

113:                                              ; preds = %103
  %114 = load i32, i32* %3, align 4
  %115 = sext i32 %114 to i64
  %116 = getelementptr inbounds [81 x i8], [81 x i8]* %15, i64 %115
  %117 = load i32, i32* %4, align 4
  %118 = sext i32 %117 to i64
  %119 = getelementptr inbounds [81 x i8], [81 x i8]* %116, i64 0, i64 %118
  %120 = load i8, i8* %119, align 1
  %121 = sext i8 %120 to i32
  %122 = icmp sge i32 %121, 65
  br i1 %122, label %163, label %123

123:                                              ; preds = %113, %103
  %124 = load i32, i32* %3, align 4
  %125 = sext i32 %124 to i64
  %126 = getelementptr inbounds [81 x i8], [81 x i8]* %15, i64 %125
  %127 = load i32, i32* %4, align 4
  %128 = sext i32 %127 to i64
  %129 = getelementptr inbounds [81 x i8], [81 x i8]* %126, i64 0, i64 %128
  %130 = load i8, i8* %129, align 1
  %131 = sext i8 %130 to i32
  %132 = icmp sle i32 %131, 122
  br i1 %132, label %133, label %143

133:                                              ; preds = %123
  %134 = load i32, i32* %3, align 4
  %135 = sext i32 %134 to i64
  %136 = getelementptr inbounds [81 x i8], [81 x i8]* %15, i64 %135
  %137 = load i32, i32* %4, align 4
  %138 = sext i32 %137 to i64
  %139 = getelementptr inbounds [81 x i8], [81 x i8]* %136, i64 0, i64 %138
  %140 = load i8, i8* %139, align 1
  %141 = sext i8 %140 to i32
  %142 = icmp sge i32 %141, 97
  br i1 %142, label %163, label %143

143:                                              ; preds = %133, %123
  %144 = load i32, i32* %3, align 4
  %145 = sext i32 %144 to i64
  %146 = getelementptr inbounds [81 x i8], [81 x i8]* %15, i64 %145
  %147 = load i32, i32* %4, align 4
  %148 = sext i32 %147 to i64
  %149 = getelementptr inbounds [81 x i8], [81 x i8]* %146, i64 0, i64 %148
  %150 = load i8, i8* %149, align 1
  %151 = sext i8 %150 to i32
  %152 = icmp sle i32 %151, 57
  br i1 %152, label %153, label %172

153:                                              ; preds = %143
  %154 = load i32, i32* %3, align 4
  %155 = sext i32 %154 to i64
  %156 = getelementptr inbounds [81 x i8], [81 x i8]* %15, i64 %155
  %157 = load i32, i32* %4, align 4
  %158 = sext i32 %157 to i64
  %159 = getelementptr inbounds [81 x i8], [81 x i8]* %156, i64 0, i64 %158
  %160 = load i8, i8* %159, align 1
  %161 = sext i8 %160 to i32
  %162 = icmp sge i32 %161, 48
  br i1 %162, label %163, label %172

163:                                              ; preds = %153, %133, %113, %93
  %164 = load i32, i32* %3, align 4
  %165 = sext i32 %164 to i64
  %166 = getelementptr inbounds i32, i32* %20, i64 %165
  %167 = load i32, i32* %166, align 4
  %168 = mul nsw i32 %167, 1
  %169 = load i32, i32* %3, align 4
  %170 = sext i32 %169 to i64
  %171 = getelementptr inbounds i32, i32* %20, i64 %170
  store i32 %168, i32* %171, align 4
  br label %176

172:                                              ; preds = %153, %143
  %173 = load i32, i32* %3, align 4
  %174 = sext i32 %173 to i64
  %175 = getelementptr inbounds i32, i32* %20, i64 %174
  store i32 0, i32* %175, align 4
  br label %176

176:                                              ; preds = %172, %163
  br label %177

177:                                              ; preds = %176
  %178 = load i32, i32* %4, align 4
  %179 = add nsw i32 %178, 1
  store i32 %179, i32* %4, align 4
  br label %89

180:                                              ; preds = %89
  br label %185

181:                                              ; preds = %80, %72
  %182 = load i32, i32* %3, align 4
  %183 = sext i32 %182 to i64
  %184 = getelementptr inbounds i32, i32* %20, i64 %183
  store i32 0, i32* %184, align 4
  br label %185

185:                                              ; preds = %181, %180
  %186 = load i32, i32* %3, align 4
  %187 = sext i32 %186 to i64
  %188 = getelementptr inbounds i32, i32* %20, i64 %187
  %189 = load i32, i32* %188, align 4
  %190 = call i32 (i8*, ...) @printf(i8* getelementptr inbounds ([4 x i8], [4 x i8]* @.str.1, i64 0, i64 0), i32 %189)
  br label %191

191:                                              ; preds = %185
  %192 = load i32, i32* %3, align 4
  %193 = add nsw i32 %192, 1
  store i32 %193, i32* %3, align 4
  br label %33

194:                                              ; preds = %33
  %195 = load i8*, i8** %6, align 8
  call void @llvm.stackrestore(i8* %195)
  %196 = load i32, i32* %1, align 4
  ret i32 %196
}

declare dso_local i32 @__isoc99_scanf(i8*, ...) #1

; Function Attrs: nounwind
declare i8* @llvm.stacksave() #2

declare dso_local i32 @getchar() #1

declare dso_local i32 @gets(...) #1

; Function Attrs: nounwind readonly
declare dso_local i64 @strlen(i8*) #3

declare dso_local i32 @printf(i8*, ...) #1

; Function Attrs: nounwind
declare void @llvm.stackrestore(i8*) #2


!llvm.module.flags = !{!0}
!llvm.ident = !{!1}

!0 = !{i32 1, !"wchar_size", i32 4}
!1 = !{!"clang version 10.0.0-4ubuntu1 "}
